; Function Attrs: nounwind uwtable
define hidden zeroext i1 @SDL_HasPrimarySelectionText_REAL() local_unnamed_addr #0 {
  %1 = tail call ptr @SDL_GetVideoDevice() #6
  %.not = icmp eq ptr %1, null
  br i1 %.not, label %2, label %4

2:                                                ; preds = %0
  %3 = tail call zeroext i1 @SDL_UninitializedVideo() #6
  br label %15

4:                                                ; preds = %0
  %5 = getelementptr inbounds nuw i8, ptr %1, i64 736
  %6 = load ptr, ptr %5, align 8
  %.not10 = icmp eq ptr %6, null
  br i1 %.not10, label %9, label %7

7:                                                ; preds = %4
  %8 = tail call zeroext i1 %6(ptr noundef nonnull %1) #6
  br label %15

9:                                                ; preds = %4
  %10 = getelementptr inbounds nuw i8, ptr %1, i64 896
  %11 = load ptr, ptr %10, align 8
  %.not11 = icmp eq ptr %11, null
  br i1 %.not11, label %14, label %12

12:                                               ; preds = %9
  %13 = load i8, ptr %11, align 1
  %.not12 = icmp eq i8 %13, 0
  br i1 %.not12, label %14, label %15

14:                                               ; preds = %12, %9
  br label %15

15:                                               ; preds = %12, %14, %7, %2
  %.0 = phi i1 [ %8, %7 ], [ false, %14 ], [ %3, %2 ], [ true, %12 ]
  ret i1 %.0
}